; Function Attrs: nounwind uwtable
define dso_local void @ExecRestrPos(ptr noundef %0) local_unnamed_addr #0 {
  %2 = load i32, ptr %0, align 4
  switch i32 %2, label %9 [
    i32 404, label %3
    i32 405, label %4
    i32 418, label %5
    i32 423, label %6
    i32 425, label %7
    i32 393, label %8
  ]

3:                                                ; preds = %1
  tail call void @ExecIndexRestrPos(ptr noundef nonnull %0) #6
  br label %13

4:                                                ; preds = %1
  tail call void @ExecIndexOnlyRestrPos(ptr noundef nonnull %0) #6
  br label %13

5:                                                ; preds = %1
  tail call void @ExecCustomRestrPos(ptr noundef nonnull %0) #6
  br label %13

6:                                                ; preds = %1
  tail call void @ExecMaterialRestrPos(ptr noundef nonnull %0) #6
  br label %13

7:                                                ; preds = %1
  tail call void @ExecSortRestrPos(ptr noundef nonnull %0) #6
  br label %13

8:                                                ; preds = %1
  tail call void @ExecResultRestrPos(ptr noundef nonnull %0) #6
  br label %13

9:                                                ; preds = %1
  %10 = tail call zeroext i1 @errstart_cold(i32 noundef 21, ptr noundef null) #7
  tail call void @llvm.assume(i1 %10)
  %11 = load i32, ptr %0, align 4
  %12 = tail call i32 (ptr, ...) @errmsg_internal(ptr noundef nonnull @.str, i32 noundef %11) #6
  tail call void @errfinish(ptr noundef nonnull @.str.1, i32 noundef 404, ptr noundef nonnull @__func__.ExecRestrPos) #6
  unreachable

13:                                               ; preds = %8, %7, %6, %5, %4, %3
  ret void
}